; Function Attrs: mustprogress nounwind uwtable
define internal void @_ZN12_GLOBAL__N_15AddOp5applyERN4llvm9SetTheoryEPKNS1_7DagInitERNS1_14SmallSetVectorIPNS1_6RecordELj16EEENS1_8ArrayRefINS1_5SMLocEEE(ptr nonnull readnone align 8 captures(none) %0, ptr noundef nonnull align 8 dereferenceable(96) %1, ptr noundef readonly %2, ptr noundef nonnull align 8 dereferenceable(168) %3, ptr %4, i64 %5) unnamed_addr #1 align 2 {
  %7 = getelementptr inbounds nuw i8, ptr %2, i64 48
  %8 = load i32, ptr %7, align 8
  %9 = zext i32 %8 to i64
  %.idx = shl nuw nsw i64 %9, 3
  %10 = getelementptr inbounds nuw i8, ptr %2, i64 %.idx
  %.ptr6 = getelementptr inbounds nuw i8, ptr %10, i64 56
  %.not7.i = icmp eq i32 %8, 0
  br i1 %.not7.i, label %_ZN4llvm9SetTheory8evaluateIPKPNS_4InitEEEvT_S6_RNS_14SmallSetVectorIPNS_6RecordELj16EEENS_8ArrayRefINS_5SMLocEEE.exit, label %.lr.ph.i.preheader

.lr.ph.i.preheader:                               ; preds = %6
  %.ptr = getelementptr inbounds nuw i8, ptr %2, i64 56
  br label %.lr.ph.i

.lr.ph.i:                                         ; preds = %.lr.ph.i.preheader, %.lr.ph.i
  %.08.i = phi ptr [ %11, %.lr.ph.i ], [ %.ptr, %.lr.ph.i.preheader ]
  %11 = getelementptr inbounds nuw i8, ptr %.08.i, i64 8
  %12 = load ptr, ptr %.08.i, align 8
  tail call void @_ZN4llvm9SetTheory8evaluateEPKNS_4InitERNS_14SmallSetVectorIPNS_6RecordELj16EEENS_8ArrayRefINS_5SMLocEEE(ptr noundef nonnull align 8 dereferenceable(96) %1, ptr noundef %12, ptr noundef nonnull align 8 dereferenceable(168) %3, ptr %4, i64 %5)
  %.not.i = icmp eq ptr %11, %.ptr6
  br i1 %.not.i, label %_ZN4llvm9SetTheory8evaluateIPKPNS_4InitEEEvT_S6_RNS_14SmallSetVectorIPNS_6RecordELj16EEENS_8ArrayRefINS_5SMLocEEE.exit, label %.lr.ph.i, !llvm.loop !39

_ZN4llvm9SetTheory8evaluateIPKPNS_4InitEEEvT_S6_RNS_14SmallSetVectorIPNS_6RecordELj16EEENS_8ArrayRefINS_5SMLocEEE.exit: ; preds = %.lr.ph.i, %6
  ret void
}